Certificate:
    Data:
        Version: 3 (0x2)
        Serial Number: 2 (0x2)
        Signature Algorithm: sha1WithRSAEncryption
        Issuer: C=US, ST=NY, L=NewYork, O=OLPC, OU=WORLD, CN=XSCE_OLPC/name=SCHOOLSERVER/emailAddress=georgejhunt@gmail.com
        Validity
            Not Before: Jun  1 13:12:16 2013 GMT
            Not After : May 30 13:12:16 2023 GMT
        Subject: C=US, ST=NY, L=NewYork, O=OLPC, OU=WORLD, CN=client1/name=SCHOOLSERVER/emailAddress=georgejhunt@gmail.com
        Subject Public Key Info:
            Public Key Algorithm: rsaEncryption
                Public-Key: (1024 bit)
                Modulus:
                    00:c4:4b:49:34:21:d2:1e:99:4e:51:bf:87:9a:9c:
                    aa:b7:3f:39:c3:c6:3c:14:51:8f:fb:c2:ac:b6:f7:
                    cf:56:08:56:16:24:45:40:5d:67:ca:cc:d0:71:a4:
                    2f:20:20:82:4d:3e:d0:71:8f:83:ad:cf:d3:e7:bc:
                    36:5d:6b:c1:26:21:98:8b:d5:1a:92:9e:ee:47:d1:
                    7d:95:b5:09:25:8a:6f:11:c6:c7:eb:be:5e:ef:c9:
                    f7:4e:6c:a8:b3:23:2f:e7:24:e1:31:d2:ee:ac:98:
                    b2:db:f8:ba:79:36:1e:70:e1:20:a1:7d:cc:f7:0f:
                    f1:94:73:b4:36:b1:ee:fd:a9
                Exponent: 65537 (0x10001)
        X509v3 extensions:
            X509v3 Basic Constraints: 
                CA:FALSE
            Netscape Comment: 
                Easy-RSA Generated Certificate
            X509v3 Subject Key Identifier: 
                FA:25:F0:69:4C:FD:DE:59:9D:89:9B:63:A4:C8:AE:F2:A7:A2:FC:D0
            X509v3 Authority Key Identifier: 
                keyid:E0:2B:1F:28:71:41:8E:EF:B4:20:4E:44:8A:36:F4:03:09:E8:8D:4B
                DirName:/C=US/ST=NY/L=NewYork/O=OLPC/OU=WORLD/CN=XSCE_OLPC/name=SCHOOLSERVER/emailAddress=georgejhunt@gmail.com
                serial:E2:21:50:EE:8D:34:27:C1

            X509v3 Extended Key Usage: 
                TLS Web Client Authentication
            X509v3 Key Usage: 
                Digital Signature
    Signature Algorithm: sha1WithRSAEncryption
        39:c4:6e:8e:e4:e9:ea:e0:f3:ce:d2:9f:ba:98:11:e8:3c:ca:
        8a:2d:58:d4:13:55:e8:8c:c7:8f:ac:67:ff:68:0a:24:b2:41:
        f5:4b:c3:7a:78:6c:e8:52:c0:0d:57:61:9f:f4:28:64:dd:0f:
        66:bc:73:8b:31:27:45:5c:1d:46:75:84:f2:93:1e:89:25:57:
        a8:54:7c:40:9d:7c:38:9e:b1:b6:94:e8:61:1c:c2:45:a7:2c:
        f7:ee:98:b0:b2:2c:c0:1a:a5:53:e6:65:db:b9:d3:21:46:dd:
        8a:ba:42:02:3f:e9:c6:c6:92:4b:ad:10:e7:f8:8d:d5:69:88:
        48:9f
-----BEGIN CERTIFICATE-----
MIIEAzCCA2ygAwIBAgIBAjANBgkqhkiG9w0BAQUFADCBnDELMAkGA1UEBhMCVVMx
CzAJBgNVBAgTAk5ZMRAwDgYDVQQHEwdOZXdZb3JrMQ0wCwYDVQQKEwRPTFBDMQ4w
DAYDVQQLEwVXT1JMRDESMBAGA1UEAxQJWFNDRV9PTFBDMRUwEwYDVQQpEwxTQ0hP
T0xTRVJWRVIxJDAiBgkqhkiG9w0BCQEWFWdlb3JnZWpodW50QGdtYWlsLmNvbTAe
Fw0xMzA2MDExMzEyMTZaFw0yMzA1MzAxMzEyMTZaMIGaMQswCQYDVQQGEwJVUzEL
MAkGA1UECBMCTlkxEDAOBgNVBAcTB05ld1lvcmsxDTALBgNVBAoTBE9MUEMxDjAM
BgNVBAsTBVdPUkxEMRAwDgYDVQQDEwdjbGllbnQxMRUwEwYDVQQpEwxTQ0hPT0xT
RVJWRVIxJDAiBgkqhkiG9w0BCQEWFWdlb3JnZWpodW50QGdtYWlsLmNvbTCBnzAN
BgkqhkiG9w0BAQEFAAOBjQAwgYkCgYEAxEtJNCHSHplOUb+Hmpyqtz85w8Y8FFGP
+8KstvfPVghWFiRFQF1nyszQcaQvICCCTT7QcY+Drc/T57w2XWvBJiGYi9Uakp7u
R9F9lbUJJYpvEcbH675e78n3TmyosyMv5yThMdLurJiy2/i6eTYecOEgoX3M9w/x
lHO0NrHu/akCAwEAAaOCAVMwggFPMAkGA1UdEwQCMAAwLQYJYIZIAYb4QgENBCAW
HkVhc3ktUlNBIEdlbmVyYXRlZCBDZXJ0aWZpY2F0ZTAdBgNVHQ4EFgQU+iXwaUz9
3lmdiZtjpMiu8qei/NAwgdEGA1UdIwSByTCBxoAU4CsfKHFBju+0IE5Eijb0Awno
jUuhgaKkgZ8wgZwxCzAJBgNVBAYTAlVTMQswCQYDVQQIEwJOWTEQMA4GA1UEBxMH
TmV3WW9yazENMAsGA1UEChMET0xQQzEOMAwGA1UECxMFV09STEQxEjAQBgNVBAMU
CVhTQ0VfT0xQQzEVMBMGA1UEKRMMU0NIT09MU0VSVkVSMSQwIgYJKoZIhvcNAQkB
FhVnZW9yZ2VqaHVudEBnbWFpbC5jb22CCQDiIVDujTQnwTATBgNVHSUEDDAKBggr
BgEFBQcDAjALBgNVHQ8EBAMCB4AwDQYJKoZIhvcNAQEFBQADgYEAOcRujuTp6uDz
ztKfupgR6DzKii1Y1BNV6IzHj6xn/2gKJLJB9UvDenhs6FLADVdhn/QoZN0PZrxz
izEnRVwdRnWE8pMeiSVXqFR8QJ18OJ6xtpToYRzCRacs9+6YsLIswBqlU+Zl27nT
IUbdirpCAj/pxsaSS60Q5/iN1WmISJ8=
-----END CERTIFICATE-----
